; Function Attrs: mustprogress uwtable
define hidden noundef nonnull ptr @_ZN10duckdb_re29Prefilter4Info8AnyMatchEv() local_unnamed_addr #0 align 2 personality ptr @__gxx_personality_v0 {
  %1 = tail call noalias noundef nonnull dereferenceable(64) ptr @_Znwm(i64 noundef 64) #20
  %2 = getelementptr inbounds nuw i8, ptr %1, i64 8
  store i32 0, ptr %2, align 8, !tbaa !40
  %3 = getelementptr inbounds nuw i8, ptr %1, i64 16
  store ptr null, ptr %3, align 8, !tbaa !41
  %4 = getelementptr inbounds nuw i8, ptr %1, i64 24
  store ptr %2, ptr %4, align 8, !tbaa !31
  %5 = getelementptr inbounds nuw i8, ptr %1, i64 32
  store ptr %2, ptr %5, align 8, !tbaa !42
  %6 = getelementptr inbounds nuw i8, ptr %1, i64 40
  store i64 0, ptr %6, align 8, !tbaa !36
  %7 = getelementptr inbounds nuw i8, ptr %1, i64 48
  store i8 0, ptr %7, align 8, !tbaa !43
  %8 = getelementptr inbounds nuw i8, ptr %1, i64 56
  store ptr null, ptr %8, align 8, !tbaa !51
  %9 = tail call noalias noundef nonnull dereferenceable(56) ptr @_Znwm(i64 noundef 56) #20
  %10 = getelementptr inbounds nuw i8, ptr %9, i64 16
  %11 = getelementptr inbounds nuw i8, ptr %9, i64 32
  store ptr %11, ptr %10, align 8, !tbaa !3
  %12 = getelementptr inbounds nuw i8, ptr %9, i64 24
  store i64 0, ptr %12, align 8, !tbaa !9
  store i8 0, ptr %11, align 1, !tbaa !12
  store i32 0, ptr %9, align 8, !tbaa !13
  %13 = getelementptr inbounds nuw i8, ptr %9, i64 8
  store ptr null, ptr %13, align 8, !tbaa !18
  store ptr %9, ptr %8, align 8, !tbaa !51
  ret ptr %1
}